target datalayout = "e-m:e-p270:32:32-p271:32:32-p272:64:64-i64:64-i128:128-f80:128-n8:16:32:64-S128"
target triple = "x86_64-pc-linux-gnu"

%struct.rb_code_location_struct = type { %struct.rb_code_position_struct, %struct.rb_code_position_struct }
%struct.rb_code_position_struct = type { i32, i32 }
%struct.lex_context = type { i16, [2 x i8] }
%struct.parser_params = type { ptr, ptr, %struct.anon.12, i64, i64, i32, i32, i32, i32, i32, ptr, ptr, ptr, ptr, i32, i32, ptr, i64, ptr, ptr, ptr, ptr, i64, i64, %struct.anon.13, ptr, i32, ptr, i32, i64, %struct.lex_context, ptr, ptr, ptr, i16, i64, i64, i64, i64, i64, i64 }
%struct.anon.12 = type { ptr, ptr, ptr, %struct.parser_string_buffer, ptr, ptr, ptr, ptr, ptr, ptr, i32, i32, i32, i32 }
%struct.parser_string_buffer = type { ptr, ptr }
%struct.anon.13 = type { ptr, i32, i32, i32, i32 }
%struct.RNode = type { i64, %struct.rb_code_location_struct, i32 }
%struct.RNode_UNDEF = type { %struct.RNode, ptr, %struct.rb_code_location_struct }
%struct.rb_parser_ary = type { i32, ptr, i64, i64 }

@NULL_LOC = internal constant %struct.rb_code_location_struct { %struct.rb_code_position_struct { i32 0, i32 -1 }, %struct.rb_code_position_struct { i32 0, i32 -1 } }, align 4
@.str.558 = private unnamed_addr constant [39 x i8] c"unexpected rb_parser_ary_data_type: %d\00", align 1
@.str.667 = private unnamed_addr constant [43 x i8] c"negative array size (or size too big): %ld\00", align 1

; Function Attrs: nounwind sspstrong uwtable
define internal void @rb_parser_ary_extend(ptr noundef %0, ptr noundef %1, i64 noundef %2) #0 {
  %4 = alloca ptr, align 8
  %5 = alloca ptr, align 8
  %6 = alloca i64, align 8
  %7 = alloca i64, align 8
  store ptr %0, ptr %4, align 8, !tbaa !6
  store ptr %1, ptr %5, align 8, !tbaa !445
  store i64 %2, ptr %6, align 8, !tbaa !16
  call void @llvm.lifetime.start.p0(i64 8, ptr %7) #25
  %8 = load ptr, ptr %5, align 8, !tbaa !445
  %9 = getelementptr inbounds nuw %struct.rb_parser_ary, ptr %8, i32 0, i32 3
  %10 = load i64, ptr %9, align 8, !tbaa !676
  %11 = load i64, ptr %6, align 8, !tbaa !16
  %12 = icmp slt i64 %10, %11
  br i1 %12, label %13, label %42

13:                                               ; preds = %3
  %14 = load i64, ptr %6, align 8, !tbaa !16
  %15 = load ptr, ptr %5, align 8, !tbaa !445
  %16 = getelementptr inbounds nuw %struct.rb_parser_ary, ptr %15, i32 0, i32 3
  store i64 %14, ptr %16, align 8, !tbaa !676
  %17 = load ptr, ptr %5, align 8, !tbaa !445
  %18 = getelementptr inbounds nuw %struct.rb_parser_ary, ptr %17, i32 0, i32 1
  %19 = load ptr, ptr %18, align 8, !tbaa !677
  %20 = load i64, ptr %6, align 8, !tbaa !16
  %21 = mul i64 8, %20
  %22 = call nonnull ptr @ruby_xrealloc(ptr noundef %19, i64 noundef %21) #34
  %23 = load ptr, ptr %5, align 8, !tbaa !445
  %24 = getelementptr inbounds nuw %struct.rb_parser_ary, ptr %23, i32 0, i32 1
  store ptr %22, ptr %24, align 8, !tbaa !677
  %25 = load ptr, ptr %5, align 8, !tbaa !445
  %26 = getelementptr inbounds nuw %struct.rb_parser_ary, ptr %25, i32 0, i32 2
  %27 = load i64, ptr %26, align 8, !tbaa !675
  store i64 %27, ptr %7, align 8, !tbaa !16
  br label %28

28:                                               ; preds = %38, %13
  %29 = load i64, ptr %7, align 8, !tbaa !16
  %30 = load i64, ptr %6, align 8, !tbaa !16
  %31 = icmp slt i64 %29, %30
  br i1 %31, label %32, label %41

32:                                               ; preds = %28
  %33 = load ptr, ptr %5, align 8, !tbaa !445
  %34 = getelementptr inbounds nuw %struct.rb_parser_ary, ptr %33, i32 0, i32 1
  %35 = load ptr, ptr %34, align 8, !tbaa !677
  %36 = load i64, ptr %7, align 8, !tbaa !16
  %37 = getelementptr inbounds ptr, ptr %35, i64 %36
  store ptr null, ptr %37, align 8, !tbaa !609
  br label %38

38:                                               ; preds = %32
  %39 = load i64, ptr %7, align 8, !tbaa !16
  %40 = add nsw i64 %39, 1
  store i64 %40, ptr %7, align 8, !tbaa !16
  br label %28, !llvm.loop !678

41:                                               ; preds = %28
  br label %42

42:                                               ; preds = %41, %3
  call void @llvm.lifetime.end.p0(i64 8, ptr %7) #25
  ret void
}

; Function Attrs: inlinehint nounwind sspstrong uwtable
define internal void @nd_set_line(ptr noundef %0, i64 noundef %1) #6 {
  %3 = alloca ptr, align 8
  %4 = alloca i64, align 8
  store ptr %0, ptr %3, align 8, !tbaa !33
  store i64 %1, ptr %4, align 8, !tbaa !16
  %5 = load ptr, ptr %3, align 8, !tbaa !33
  %6 = getelementptr inbounds nuw %struct.RNode, ptr %5, i32 0, i32 0
  %7 = load i64, ptr %6, align 8, !tbaa !175
  %8 = and i64 %7, 32767
  store i64 %8, ptr %6, align 8, !tbaa !175
  %9 = load i64, ptr %4, align 8, !tbaa !16
  %10 = and i64 %9, 562949953421311
  %11 = shl i64 %10, 15
  %12 = load ptr, ptr %3, align 8, !tbaa !33
  %13 = getelementptr inbounds nuw %struct.RNode, ptr %12, i32 0, i32 0
  %14 = load i64, ptr %13, align 8, !tbaa !175
  %15 = or i64 %14, %11
  store i64 %15, ptr %13, align 8, !tbaa !175
  ret void
}

; Function Attrs: nounwind sspstrong uwtable
define internal ptr @parser_ary_push(ptr noundef %0, ptr noundef %1, ptr noundef %2) #0 {
  %4 = alloca ptr, align 8
  %5 = alloca ptr, align 8
  %6 = alloca ptr, align 8
  store ptr %0, ptr %4, align 8, !tbaa !6
  store ptr %1, ptr %5, align 8, !tbaa !445
  store ptr %2, ptr %6, align 8, !tbaa !609
  %7 = load ptr, ptr %5, align 8, !tbaa !445
  %8 = getelementptr inbounds nuw %struct.rb_parser_ary, ptr %7, i32 0, i32 2
  %9 = load i64, ptr %8, align 8, !tbaa !675
  %10 = load ptr, ptr %5, align 8, !tbaa !445
  %11 = getelementptr inbounds nuw %struct.rb_parser_ary, ptr %10, i32 0, i32 3
  %12 = load i64, ptr %11, align 8, !tbaa !676
  %13 = icmp eq i64 %9, %12
  br i1 %13, label %14, label %29

14:                                               ; preds = %3
  %15 = load ptr, ptr %4, align 8, !tbaa !6
  %16 = load ptr, ptr %5, align 8, !tbaa !445
  %17 = load ptr, ptr %5, align 8, !tbaa !445
  %18 = getelementptr inbounds nuw %struct.rb_parser_ary, ptr %17, i32 0, i32 2
  %19 = load i64, ptr %18, align 8, !tbaa !675
  %20 = icmp eq i64 %19, 0
  br i1 %20, label %21, label %22

21:                                               ; preds = %14
  br label %27

22:                                               ; preds = %14
  %23 = load ptr, ptr %5, align 8, !tbaa !445
  %24 = getelementptr inbounds nuw %struct.rb_parser_ary, ptr %23, i32 0, i32 2
  %25 = load i64, ptr %24, align 8, !tbaa !675
  %26 = mul nsw i64 %25, 2
  br label %27

27:                                               ; preds = %22, %21
  %28 = phi i64 [ 1, %21 ], [ %26, %22 ]
  call void @rb_parser_ary_extend(ptr noundef %15, ptr noundef %16, i64 noundef %28)
  br label %29

29:                                               ; preds = %27, %3
  %30 = load ptr, ptr %6, align 8, !tbaa !609
  %31 = load ptr, ptr %5, align 8, !tbaa !445
  %32 = getelementptr inbounds nuw %struct.rb_parser_ary, ptr %31, i32 0, i32 1
  %33 = load ptr, ptr %32, align 8, !tbaa !677
  %34 = load ptr, ptr %5, align 8, !tbaa !445
  %35 = getelementptr inbounds nuw %struct.rb_parser_ary, ptr %34, i32 0, i32 2
  %36 = load i64, ptr %35, align 8, !tbaa !675
  %37 = add nsw i64 %36, 1
  store i64 %37, ptr %35, align 8, !tbaa !675
  %38 = getelementptr inbounds ptr, ptr %33, i64 %36
  store ptr %30, ptr %38, align 8, !tbaa !609
  %39 = load ptr, ptr %5, align 8, !tbaa !445
  ret ptr %39
}

; Function Attrs: nounwind sspstrong uwtable
define internal ptr @parser_ary_new_capa(ptr noundef %0, i64 noundef %1) #0 {
  %3 = alloca ptr, align 8
  %4 = alloca i64, align 8
  %5 = alloca ptr, align 8
  store ptr %0, ptr %3, align 8, !tbaa !6
  store i64 %1, ptr %4, align 8, !tbaa !16
  %6 = load i64, ptr %4, align 8, !tbaa !16
  %7 = icmp slt i64 %6, 0
  br i1 %7, label %8, label %10

8:                                                ; preds = %2
  %9 = load i64, ptr %4, align 8, !tbaa !16
  call void (ptr, ...) @rb_bug(ptr noundef @.str.667, i64 noundef %9) #30
  unreachable

10:                                               ; preds = %2
  call void @llvm.lifetime.start.p0(i64 8, ptr %5) #25
  %11 = call noalias nonnull ptr @ruby_xcalloc(i64 noundef 1, i64 noundef 32) #31
  store ptr %11, ptr %5, align 8, !tbaa !445
  %12 = load ptr, ptr %5, align 8, !tbaa !445
  %13 = getelementptr inbounds nuw %struct.rb_parser_ary, ptr %12, i32 0, i32 0
  store i32 0, ptr %13, align 8, !tbaa !446
  %14 = load ptr, ptr %5, align 8, !tbaa !445
  %15 = getelementptr inbounds nuw %struct.rb_parser_ary, ptr %14, i32 0, i32 2
  store i64 0, ptr %15, align 8, !tbaa !675
  %16 = load i64, ptr %4, align 8, !tbaa !16
  %17 = load ptr, ptr %5, align 8, !tbaa !445
  %18 = getelementptr inbounds nuw %struct.rb_parser_ary, ptr %17, i32 0, i32 3
  store i64 %16, ptr %18, align 8, !tbaa !676
  %19 = load i64, ptr %4, align 8, !tbaa !16
  %20 = icmp slt i64 0, %19
  br i1 %20, label %21, label %26

21:                                               ; preds = %10
  %22 = load i64, ptr %4, align 8, !tbaa !16
  %23 = call noalias nonnull ptr @ruby_xcalloc(i64 noundef %22, i64 noundef 8) #31
  %24 = load ptr, ptr %5, align 8, !tbaa !445
  %25 = getelementptr inbounds nuw %struct.rb_parser_ary, ptr %24, i32 0, i32 1
  store ptr %23, ptr %25, align 8, !tbaa !677
  br label %29

26:                                               ; preds = %10
  %27 = load ptr, ptr %5, align 8, !tbaa !445
  %28 = getelementptr inbounds nuw %struct.rb_parser_ary, ptr %27, i32 0, i32 1
  store ptr null, ptr %28, align 8, !tbaa !677
  br label %29

29:                                               ; preds = %26, %21
  %30 = load ptr, ptr %5, align 8, !tbaa !445
  call void @llvm.lifetime.end.p0(i64 8, ptr %5) #25
  ret ptr %30
}

; Function Attrs: nounwind sspstrong uwtable
define internal i32 @parser_get_node_id(ptr noundef %0) #0 {
  %2 = alloca ptr, align 8
  %3 = alloca i32, align 4
  store ptr %0, ptr %2, align 8, !tbaa !6
  call void @llvm.lifetime.start.p0(i64 4, ptr %3) #25
  %4 = load ptr, ptr %2, align 8, !tbaa !6
  %5 = getelementptr inbounds nuw %struct.parser_params, ptr %4, i32 0, i32 26
  %6 = load i32, ptr %5, align 8, !tbaa !670
  store i32 %6, ptr %3, align 4, !tbaa !14
  %7 = load ptr, ptr %2, align 8, !tbaa !6
  %8 = getelementptr inbounds nuw %struct.parser_params, ptr %7, i32 0, i32 26
  %9 = load i32, ptr %8, align 8, !tbaa !670
  %10 = add nsw i32 %9, 1
  store i32 %10, ptr %8, align 8, !tbaa !670
  %11 = load i32, ptr %3, align 4, !tbaa !14
  call void @llvm.lifetime.end.p0(i64 4, ptr %3) #25
  ret i32 %11
}

; Function Attrs: nounwind sspstrong uwtable
define internal ptr @nd_set_loc(ptr noundef %0, ptr noundef %1) #0 {
  %3 = alloca ptr, align 8
  %4 = alloca ptr, align 8
  store ptr %0, ptr %3, align 8, !tbaa !33
  store ptr %1, ptr %4, align 8, !tbaa !22
  %5 = load ptr, ptr %3, align 8, !tbaa !33
  %6 = getelementptr inbounds nuw %struct.RNode, ptr %5, i32 0, i32 1
  %7 = load ptr, ptr %4, align 8, !tbaa !22
  call void @llvm.memcpy.p0.p0.i64(ptr align 8 %6, ptr align 4 %7, i64 16, i1 false), !tbaa.struct !13
  %8 = load ptr, ptr %3, align 8, !tbaa !33
  %9 = load ptr, ptr %4, align 8, !tbaa !22
  %10 = getelementptr inbounds nuw %struct.rb_code_location_struct, ptr %9, i32 0, i32 0
  %11 = getelementptr inbounds nuw %struct.rb_code_position_struct, ptr %10, i32 0, i32 0
  %12 = load i32, ptr %11, align 4, !tbaa !293
  %13 = sext i32 %12 to i64
  call void @nd_set_line(ptr noundef %8, i64 noundef %13)
  %14 = load ptr, ptr %3, align 8, !tbaa !33
  ret ptr %14
}

; Function Attrs: nounwind sspstrong uwtable
define internal ptr @node_new_internal(ptr noundef %0, i32 noundef %1, i64 noundef %2, i64 noundef %3) #0 {
  %5 = alloca ptr, align 8
  %6 = alloca i32, align 4
  %7 = alloca i64, align 8
  %8 = alloca i64, align 8
  %9 = alloca ptr, align 8
  store ptr %0, ptr %5, align 8, !tbaa !6
  store i32 %1, ptr %6, align 4, !tbaa !14
  store i64 %2, ptr %7, align 8, !tbaa !16
  store i64 %3, ptr %8, align 8, !tbaa !16
  call void @llvm.lifetime.start.p0(i64 8, ptr %9) #25
  %10 = load ptr, ptr %5, align 8, !tbaa !6
  %11 = getelementptr inbounds nuw %struct.parser_params, ptr %10, i32 0, i32 25
  %12 = load ptr, ptr %11, align 8, !tbaa !172
  %13 = load i32, ptr %6, align 4, !tbaa !14
  %14 = load i64, ptr %7, align 8, !tbaa !16
  %15 = load i64, ptr %8, align 8, !tbaa !16
  %16 = call ptr @rb_ast_newnode(ptr noundef %12, i32 noundef %13, i64 noundef %14, i64 noundef %15)
  store ptr %16, ptr %9, align 8, !tbaa !33
  %17 = load ptr, ptr %9, align 8, !tbaa !33
  %18 = load i32, ptr %6, align 4, !tbaa !14
  call void @rb_node_init(ptr noundef %17, i32 noundef %18)
  %19 = load ptr, ptr %9, align 8, !tbaa !33
  call void @llvm.lifetime.end.p0(i64 8, ptr %9) #25
  ret ptr %19
}

; Function Attrs: nounwind sspstrong uwtable
define internal ptr @rb_parser_ary_push_node(ptr noundef %0, ptr noundef %1, ptr noundef %2) #0 {
  %4 = alloca ptr, align 8
  %5 = alloca ptr, align 8
  %6 = alloca ptr, align 8
  store ptr %0, ptr %4, align 8, !tbaa !6
  store ptr %1, ptr %5, align 8, !tbaa !445
  store ptr %2, ptr %6, align 8, !tbaa !33
  %7 = load ptr, ptr %5, align 8, !tbaa !445
  %8 = getelementptr inbounds nuw %struct.rb_parser_ary, ptr %7, i32 0, i32 0
  %9 = load i32, ptr %8, align 8, !tbaa !446
  %10 = icmp ne i32 %9, 3
  br i1 %10, label %11, label %15

11:                                               ; preds = %3
  %12 = load ptr, ptr %5, align 8, !tbaa !445
  %13 = getelementptr inbounds nuw %struct.rb_parser_ary, ptr %12, i32 0, i32 0
  %14 = load i32, ptr %13, align 8, !tbaa !446
  call void (ptr, ...) @rb_bug(ptr noundef @.str.558, i32 noundef %14) #30
  unreachable

15:                                               ; preds = %3
  %16 = load ptr, ptr %4, align 8, !tbaa !6
  %17 = load ptr, ptr %5, align 8, !tbaa !445
  %18 = load ptr, ptr %6, align 8, !tbaa !33
  %19 = call ptr @parser_ary_push(ptr noundef %16, ptr noundef %17, ptr noundef %18)
  ret ptr %19
}

; Function Attrs: nounwind sspstrong uwtable
define internal ptr @rb_parser_ary_new_capa_for_node(ptr noundef %0, i64 noundef %1) #0 {
  %3 = alloca ptr, align 8
  %4 = alloca i64, align 8
  %5 = alloca ptr, align 8
  store ptr %0, ptr %3, align 8, !tbaa !6
  store i64 %1, ptr %4, align 8, !tbaa !16
  call void @llvm.lifetime.start.p0(i64 8, ptr %5) #25
  %6 = load ptr, ptr %3, align 8, !tbaa !6
  %7 = load i64, ptr %4, align 8, !tbaa !16
  %8 = call ptr @parser_ary_new_capa(ptr noundef %6, i64 noundef %7)
  store ptr %8, ptr %5, align 8, !tbaa !445
  %9 = load ptr, ptr %5, align 8, !tbaa !445
  %10 = getelementptr inbounds nuw %struct.rb_parser_ary, ptr %9, i32 0, i32 0
  store i32 3, ptr %10, align 8, !tbaa !446
  %11 = load ptr, ptr %5, align 8, !tbaa !445
  call void @llvm.lifetime.end.p0(i64 8, ptr %5) #25
  ret ptr %11
}

; Function Attrs: nounwind sspstrong uwtable
define internal ptr @node_newnode(ptr noundef %0, i32 noundef %1, i64 noundef %2, i64 noundef %3, ptr noundef %4) #0 {
  %6 = alloca ptr, align 8
  %7 = alloca i32, align 4
  %8 = alloca i64, align 8
  %9 = alloca i64, align 8
  %10 = alloca ptr, align 8
  %11 = alloca ptr, align 8
  store ptr %0, ptr %6, align 8, !tbaa !6
  store i32 %1, ptr %7, align 4, !tbaa !14
  store i64 %2, ptr %8, align 8, !tbaa !16
  store i64 %3, ptr %9, align 8, !tbaa !16
  store ptr %4, ptr %10, align 8, !tbaa !22
  call void @llvm.lifetime.start.p0(i64 8, ptr %11) #25
  %12 = load ptr, ptr %6, align 8, !tbaa !6
  %13 = load i32, ptr %7, align 4, !tbaa !14
  %14 = load i64, ptr %8, align 8, !tbaa !16
  %15 = load i64, ptr %9, align 8, !tbaa !16
  %16 = call ptr @node_new_internal(ptr noundef %12, i32 noundef %13, i64 noundef %14, i64 noundef %15)
  store ptr %16, ptr %11, align 8, !tbaa !33
  %17 = load ptr, ptr %11, align 8, !tbaa !33
  %18 = load ptr, ptr %10, align 8, !tbaa !22
  %19 = call ptr @nd_set_loc(ptr noundef %17, ptr noundef %18)
  %20 = load ptr, ptr %6, align 8, !tbaa !6
  %21 = call i32 @parser_get_node_id(ptr noundef %20)
  %22 = load ptr, ptr %11, align 8, !tbaa !33
  %23 = getelementptr inbounds nuw %struct.RNode, ptr %22, i32 0, i32 2
  store i32 %21, ptr %23, align 8, !tbaa !798
  %24 = load ptr, ptr %11, align 8, !tbaa !33
  call void @llvm.lifetime.end.p0(i64 8, ptr %11) #25
  ret ptr %24
}

; Function Attrs: nounwind sspstrong uwtable
define internal ptr @rb_node_undef_new(ptr noundef %0, ptr noundef %1, ptr noundef %2) #0 {
  %4 = alloca ptr, align 8
  %5 = alloca ptr, align 8
  %6 = alloca ptr, align 8
  %7 = alloca ptr, align 8
  store ptr %0, ptr %4, align 8, !tbaa !6
  store ptr %1, ptr %5, align 8, !tbaa !33
  store ptr %2, ptr %6, align 8, !tbaa !22
  call void @llvm.lifetime.start.p0(i64 8, ptr %7) #25
  %8 = load ptr, ptr %4, align 8, !tbaa !6
  %9 = load ptr, ptr %6, align 8, !tbaa !22
  %10 = call ptr @node_newnode(ptr noundef %8, i32 noundef 84, i64 noundef 56, i64 noundef 8, ptr noundef %9)
  store ptr %10, ptr %7, align 8, !tbaa !443
  %11 = load ptr, ptr %4, align 8, !tbaa !6
  %12 = call ptr @rb_parser_ary_new_capa_for_node(ptr noundef %11, i64 noundef 1)
  %13 = load ptr, ptr %7, align 8, !tbaa !443
  %14 = getelementptr inbounds nuw %struct.RNode_UNDEF, ptr %13, i32 0, i32 1
  store ptr %12, ptr %14, align 8, !tbaa !133
  %15 = load ptr, ptr %7, align 8, !tbaa !443
  %16 = getelementptr inbounds nuw %struct.RNode_UNDEF, ptr %15, i32 0, i32 2
  call void @llvm.memcpy.p0.p0.i64(ptr align 8 %16, ptr align 4 @NULL_LOC, i64 16, i1 false), !tbaa.struct !13
  %17 = load ptr, ptr %4, align 8, !tbaa !6
  %18 = load ptr, ptr %7, align 8, !tbaa !443
  %19 = getelementptr inbounds nuw %struct.RNode_UNDEF, ptr %18, i32 0, i32 1
  %20 = load ptr, ptr %19, align 8, !tbaa !133
  %21 = load ptr, ptr %5, align 8, !tbaa !33
  %22 = call ptr @rb_parser_ary_push_node(ptr noundef %17, ptr noundef %20, ptr noundef %21)
  %23 = load ptr, ptr %7, align 8, !tbaa !443
  call void @llvm.lifetime.end.p0(i64 8, ptr %7) #25
  ret ptr %23
}